; Function Attrs: nounwind uwtable
define ptr @l___private_Lean_Meta_DiscrTree_0__Lean_Meta_DiscrTree_getStarResult___rarg(ptr noundef %0) #2 {
  %2 = tail call i64 @l_Lean_Meta_DiscrTree_Key_hash(ptr noundef nonnull inttoptr (i64 7 to ptr)) #7
  %3 = tail call ptr @l_Lean_PersistentHashMap_findAux___at___private_Lean_Meta_DiscrTree_0__Lean_Meta_DiscrTree_getStarResult___spec__2___rarg(ptr noundef %0, i64 noundef %2, ptr noundef nonnull inttoptr (i64 7 to ptr))
  %4 = ptrtoint ptr %3 to i64
  %5 = and i64 %4, 1
  %.not.i22 = icmp eq i64 %5, 0
  br i1 %.not.i22, label %9, label %6

6:                                                ; preds = %1
  %7 = lshr i64 %4, 1
  %8 = trunc i64 %7 to i32
  br label %lean_obj_tag.exit

9:                                                ; preds = %1
  %10 = getelementptr i8, ptr %3, i64 4
  %.val.i = load i32, ptr %10, align 4
  %11 = lshr i32 %.val.i, 24
  br label %lean_obj_tag.exit

lean_obj_tag.exit:                                ; preds = %6, %9
  %.0.i = phi i32 [ %8, %6 ], [ %11, %9 ]
  %12 = icmp eq i32 %.0.i, 0
  br i1 %12, label %13, label %15

13:                                               ; preds = %lean_obj_tag.exit
  %14 = load ptr, ptr @l_Lean_Meta_DiscrTree_mkPath___closed__1, align 8, !tbaa !9
  br label %lean_dec.exit

15:                                               ; preds = %lean_obj_tag.exit
  %16 = getelementptr inbounds nuw i8, ptr %3, i64 8
  %17 = load ptr, ptr %16, align 8, !tbaa !9
  %18 = ptrtoint ptr %17 to i64
  %19 = and i64 %18, 1
  %.not = icmp eq i64 %19, 0
  br i1 %.not, label %20, label %lean_inc.exit17

20:                                               ; preds = %15
  %.val.i23 = load i32, ptr %17, align 4, !tbaa !4
  %21 = icmp sgt i32 %.val.i23, 0
  br i1 %21, label %22, label %24, !prof !11

22:                                               ; preds = %20
  %23 = add nuw i32 %.val.i23, 1
  store i32 %23, ptr %17, align 4, !tbaa !4
  br label %lean_inc.exit17

24:                                               ; preds = %20
  %.not.i24 = icmp eq i32 %.val.i23, 0
  br i1 %.not.i24, label %lean_inc.exit17, label %25

25:                                               ; preds = %24
  tail call void @lean_inc_ref_cold(ptr noundef nonnull %17) #7
  br label %lean_inc.exit17

lean_inc.exit17:                                  ; preds = %25, %24, %22, %15
  br i1 %.not.i22, label %26, label %lean_dec.exit16

26:                                               ; preds = %lean_inc.exit17
  %27 = load i32, ptr %3, align 4, !tbaa !4
  %28 = icmp sgt i32 %27, 1
  br i1 %28, label %29, label %31, !prof !11

29:                                               ; preds = %26
  %30 = add nsw i32 %27, -1
  store i32 %30, ptr %3, align 4, !tbaa !4
  br label %lean_dec.exit16

31:                                               ; preds = %26
  %.not.i = icmp eq i32 %27, 0
  br i1 %.not.i, label %lean_dec.exit16, label %32

32:                                               ; preds = %31
  tail call void @lean_dec_ref_cold(ptr noundef nonnull %3) #7
  br label %lean_dec.exit16

lean_dec.exit16:                                  ; preds = %32, %31, %29, %lean_inc.exit17
  %33 = getelementptr inbounds nuw i8, ptr %17, i64 8
  %34 = load ptr, ptr %33, align 8, !tbaa !9
  %35 = ptrtoint ptr %34 to i64
  %36 = and i64 %35, 1
  %.not29 = icmp eq i64 %36, 0
  br i1 %.not29, label %37, label %lean_inc.exit

37:                                               ; preds = %lean_dec.exit16
  %.val.i25 = load i32, ptr %34, align 4, !tbaa !4
  %38 = icmp sgt i32 %.val.i25, 0
  br i1 %38, label %39, label %41, !prof !11

39:                                               ; preds = %37
  %40 = add nuw i32 %.val.i25, 1
  store i32 %40, ptr %34, align 4, !tbaa !4
  br label %lean_inc.exit

41:                                               ; preds = %37
  %.not.i26 = icmp eq i32 %.val.i25, 0
  br i1 %.not.i26, label %lean_inc.exit, label %42

42:                                               ; preds = %41
  tail call void @lean_inc_ref_cold(ptr noundef nonnull %34) #7
  br label %lean_inc.exit

lean_inc.exit:                                    ; preds = %42, %41, %39, %lean_dec.exit16
  br i1 %.not, label %43, label %lean_dec.exit15

43:                                               ; preds = %lean_inc.exit
  %44 = load i32, ptr %17, align 4, !tbaa !4
  %45 = icmp sgt i32 %44, 1
  br i1 %45, label %46, label %48, !prof !11

46:                                               ; preds = %43
  %47 = add nsw i32 %44, -1
  store i32 %47, ptr %17, align 4, !tbaa !4
  br label %lean_dec.exit15

48:                                               ; preds = %43
  %.not.i18 = icmp eq i32 %44, 0
  br i1 %.not.i18, label %lean_dec.exit15, label %49

49:                                               ; preds = %48
  tail call void @lean_dec_ref_cold(ptr noundef nonnull %17) #7
  br label %lean_dec.exit15

lean_dec.exit15:                                  ; preds = %49, %48, %46, %lean_inc.exit
  %50 = load ptr, ptr @l_Lean_Meta_DiscrTree_mkPath___closed__1, align 8, !tbaa !9
  %51 = tail call ptr @l_Array_append___rarg(ptr noundef %50, ptr noundef %34) #7
  br i1 %.not29, label %52, label %lean_dec.exit

52:                                               ; preds = %lean_dec.exit15
  %53 = load i32, ptr %34, align 4, !tbaa !4
  %54 = icmp sgt i32 %53, 1
  br i1 %54, label %55, label %57, !prof !11

55:                                               ; preds = %52
  %56 = add nsw i32 %53, -1
  store i32 %56, ptr %34, align 4, !tbaa !4
  br label %lean_dec.exit

57:                                               ; preds = %52
  %.not.i20 = icmp eq i32 %53, 0
  br i1 %.not.i20, label %lean_dec.exit, label %58

58:                                               ; preds = %57
  tail call void @lean_dec_ref_cold(ptr noundef nonnull %34) #7
  br label %lean_dec.exit

lean_dec.exit:                                    ; preds = %lean_dec.exit15, %55, %57, %58, %13
  %.0 = phi ptr [ %14, %13 ], [ %51, %58 ], [ %51, %57 ], [ %51, %55 ], [ %51, %lean_dec.exit15 ]
  ret ptr %.0
}